Certificate:
    Data:
        Version: 1 (0x0)
        Serial Number: 0 (0x0)
    Signature Algorithm: sha256WithRSAEncryption
        Issuer: C=US, CN=My CA
        Validity
            Not Before: Apr 10 10:32:14 2018 GMT
            Not After : Mar 17 10:32:14 2118 GMT
        Subject: CN=linkerd, C=US
        Subject Public Key Info:
            Public Key Algorithm: rsaEncryption
                Public-Key: (2048 bit)
                Modulus:
                    00:a8:d7:b1:1c:8c:7b:05:f3:8c:52:07:ca:39:d6:
                    5d:af:b5:49:b5:ce:5e:38:36:49:6b:3d:6b:b6:38:
                    6b:c9:7a:4a:74:4d:c3:29:c5:35:95:5e:71:47:42:
                    bc:12:0c:20:ef:4d:78:2e:93:f1:9a:26:20:38:52:
                    9a:e3:0a:91:99:ff:31:15:35:2c:c6:60:8b:2b:5b:
                    58:dc:a8:bb:ea:07:56:40:74:6a:6e:da:c3:5d:42:
                    cd:74:06:8a:c9:69:15:f3:8f:c9:73:ec:62:93:49:
                    7a:86:86:62:10:ef:f7:a2:3f:43:ce:24:6e:9f:94:
                    13:92:bd:23:15:fa:80:81:80:13:bc:3c:e9:31:4c:
                    ed:69:ad:bb:a2:38:48:80:90:64:40:31:53:66:be:
                    0b:8f:02:28:4e:a8:27:a4:78:b7:36:2b:a2:78:7c:
                    c4:b7:63:36:7a:39:b1:1a:5f:bd:9f:b4:7d:5b:ea:
                    e9:45:a1:93:30:f1:df:00:12:7a:dc:a1:52:cc:2a:
                    18:49:da:2f:94:5a:93:63:f6:36:38:a1:3c:8c:0d:
                    f1:75:43:6c:47:9b:8b:db:16:81:79:19:c9:13:e5:
                    0f:d7:43:ee:f4:82:64:19:91:7d:a4:f4:0b:4a:73:
                    b2:16:17:b8:28:dd:fb:06:dc:90:64:ca:0d:bd:ab:
                    64:23
                Exponent: 65537 (0x10001)
    Signature Algorithm: sha256WithRSAEncryption
         23:f9:d3:29:ea:ce:2f:03:ce:4b:d5:49:0c:b4:5a:66:0e:79:
         4e:10:92:ec:4d:b9:ab:54:81:f9:e4:fc:e3:18:15:b0:4b:ad:
         29:d6:ac:82:64:be:64:c6:86:b8:38:21:39:f1:a7:d5:c0:0e:
         98:1c:68:47:02:07:fa:16:1e:a6:d2:1d:ee:85:95:e1:06:d4:
         dc:6f:7f:f5:fb:b4:a3:59:c1:31:18:3f:6c:2d:50:1b:19:dc:
         a3:90:12:8c:5b:1a:b8:6d:c8:15:c4:27:25:ed:05:d7:4d:d3:
         e6:98:a1:02:7e:96:c6:57:80:d5:75:df:4b:71:86:22:98:42:
         97:d0:de:2c:8d:87:c8:d8:00:27:eb:d8:e7:0f:57:ed:f1:59:
         ba:d1:e3:06:09:bc:d8:4c:d9:3c:a7:b1:72:a8:e8:a9:ca:d5:
         a0:6b:4e:50:e6:b7:e4:87:70:05:6a:41:f2:23:cc:5d:8d:78:
         75:9f:31:7f:28:0e:c2:89:ac:0b:17:05:fd:68:22:e3:7e:07:
         3c:71:5a:f9:e9:ce:c2:7f:eb:30:52:a2:dd:44:32:99:fd:87:
         33:fa:b9:d9:b9:22:22:23:5a:45:98:e2:6b:09:67:c0:72:4b:
         12:7a:7d:2f:3e:4a:14:ac:ec:a9:d6:48:1a:d6:92:74:21:c4:
         7e:5a:52:24
-----BEGIN CERTIFICATE-----
MIICsjCCAZoCAQAwDQYJKoZIhvcNAQELBQAwHTELMAkGA1UEBhMCVVMxDjAMBgNV
BAMMBU15IENBMCAXDTE4MDQxMDEwMzIxNFoYDzIxMTgwMzE3MTAzMjE0WjAfMRAw
DgYDVQQDDAdsaW5rZXJkMQswCQYDVQQGEwJVUzCCASIwDQYJKoZIhvcNAQEBBQAD
ggEPADCCAQoCggEBAKjXsRyMewXzjFIHyjnWXa+1SbXOXjg2SWs9a7Y4a8l6SnRN
wynFNZVecUdCvBIMIO9NeC6T8ZomIDhSmuMKkZn/MRU1LMZgiytbWNyou+oHVkB0
am7aw11CzXQGislpFfOPyXPsYpNJeoaGYhDv96I/Q84kbp+UE5K9IxX6gIGAE7w8
6TFM7Wmtu6I4SICQZEAxU2a+C48CKE6oJ6R4tzYronh8xLdjNno5sRpfvZ+0fVvq
6UWhkzDx3wASetyhUswqGEnaL5Rak2P2NjihPIwN8XVDbEebi9sWgXkZyRPlD9dD
7vSCZBmRfaT0C0pzshYXuCjd+wbckGTKDb2rZCMCAwEAATANBgkqhkiG9w0BAQsF
AAOCAQEAI/nTKerOLwPOS9VJDLRaZg55ThCS7E25q1SB+eT84xgVsEutKdasgmS+
ZMaGuDghOfGn1cAOmBxoRwIH+hYeptId7oWV4QbU3G9/9fu0o1nBMRg/bC1QGxnc
o5ASjFsauG3IFcQnJe0F103T5pihAn6WxleA1XXfS3GGIphCl9DeLI2HyNgAJ+vY
5w9X7fFZutHjBgm82EzZPKexcqjoqcrVoGtOUOa35IdwBWpB8iPMXY14dZ8xfygO
womsCxcF/Wgi434HPHFa+enOwn/rMFKi3UQymf2HM/q52bkiIiNaRZjiawlnwHJL
Enp9Lz5KFKzsqdZIGtaSdCHEflpSJA==
-----END CERTIFICATE-----
